; ModuleID = '20/1124.c'
source_filename = "20/1124.c"
target datalayout = "e-m:e-p270:32:32-p271:32:32-p272:64:64-i64:64-f80:128-n8:16:32:64-S128"
target triple = "x86_64-pc-linux-gnu"

@.str = private unnamed_addr constant [5 x i8] c"%s%s\00", align 1
@.str.1 = private unnamed_addr constant [3 x i8] c"%c\00", align 1
@.str.2 = private unnamed_addr constant [2 x i8] c"\0A\00", align 1

; Function Attrs: noinline nounwind uwtable
define dso_local i32 @main(i32 %0, i8** %1) #0 {
  %3 = alloca i32, align 4
  %4 = alloca i32, align 4
  %5 = alloca i8**, align 8
  %6 = alloca [11 x i8], align 1
  %7 = alloca [4 x i8], align 1
  %8 = alloca i8, align 1
  %9 = alloca i32, align 4
  %10 = alloca i32, align 4
  %11 = alloca i32, align 4
  %12 = alloca i32, align 4
  %13 = alloca i32, align 4
  %14 = alloca i32, align 4
  %15 = alloca i32, align 4
  store i32 0, i32* %3, align 4
  store i32 %0, i32* %4, align 4
  store i8** %1, i8*** %5, align 8
  store i32 0, i32* %15, align 4
  br label %16

16:                                               ; preds = %103, %2
  %17 = getelementptr inbounds [11 x i8], [11 x i8]* %6, i64 0, i64 0
  %18 = getelementptr inbounds [4 x i8], [4 x i8]* %7, i64 0, i64 0
  %19 = call i32 (i8*, ...) @__isoc99_scanf(i8* getelementptr inbounds ([5 x i8], [5 x i8]* @.str, i64 0, i64 0), i8* %17, i8* %18)
  %20 = icmp ne i32 %19, -1
  br i1 %20, label %21, label %105

21:                                               ; preds = %16
  %22 = getelementptr inbounds [11 x i8], [11 x i8]* %6, i64 0, i64 0
  %23 = call i64 @strlen(i8* %22) #3
  %24 = trunc i64 %23 to i32
  store i32 %24, i32* %9, align 4
  %25 = getelementptr inbounds [4 x i8], [4 x i8]* %7, i64 0, i64 0
  %26 = call i64 @strlen(i8* %25) #3
  %27 = trunc i64 %26 to i32
  store i32 %27, i32* %10, align 4
  %28 = getelementptr inbounds [11 x i8], [11 x i8]* %6, i64 0, i64 0
  %29 = load i8, i8* %28, align 1
  store i8 %29, i8* %8, align 1
  store i32 0, i32* %11, align 4
  br label %30

30:                                               ; preds = %53, %21
  %31 = load i32, i32* %11, align 4
  %32 = load i32, i32* %9, align 4
  %33 = icmp slt i32 %31, %32
  br i1 %33, label %34, label %56

34:                                               ; preds = %30
  %35 = load i32, i32* %11, align 4
  %36 = add nsw i32 %35, 1
  %37 = sext i32 %36 to i64
  %38 = getelementptr inbounds [11 x i8], [11 x i8]* %6, i64 0, i64 %37
  %39 = load i8, i8* %38, align 1
  %40 = sext i8 %39 to i32
  %41 = load i8, i8* %8, align 1
  %42 = sext i8 %41 to i32
  %43 = icmp sgt i32 %40, %42
  br i1 %43, label %44, label %52

44:                                               ; preds = %34
  %45 = load i32, i32* %11, align 4
  %46 = add nsw i32 %45, 1
  %47 = sext i32 %46 to i64
  %48 = getelementptr inbounds [11 x i8], [11 x i8]* %6, i64 0, i64 %47
  %49 = load i8, i8* %48, align 1
  store i8 %49, i8* %8, align 1
  %50 = load i32, i32* %11, align 4
  %51 = add nsw i32 %50, 1
  store i32 %51, i32* %15, align 4
  br label %52

52:                                               ; preds = %44, %34
  br label %53

53:                                               ; preds = %52
  %54 = load i32, i32* %11, align 4
  %55 = add nsw i32 %54, 1
  store i32 %55, i32* %11, align 4
  br label %30

56:                                               ; preds = %30
  store i32 0, i32* %12, align 4
  br label %57

57:                                               ; preds = %68, %56
  %58 = load i32, i32* %12, align 4
  %59 = load i32, i32* %15, align 4
  %60 = icmp sle i32 %58, %59
  br i1 %60, label %61, label %71

61:                                               ; preds = %57
  %62 = load i32, i32* %12, align 4
  %63 = sext i32 %62 to i64
  %64 = getelementptr inbounds [11 x i8], [11 x i8]* %6, i64 0, i64 %63
  %65 = load i8, i8* %64, align 1
  %66 = sext i8 %65 to i32
  %67 = call i32 (i8*, ...) @printf(i8* getelementptr inbounds ([3 x i8], [3 x i8]* @.str.1, i64 0, i64 0), i32 %66)
  br label %68

68:                                               ; preds = %61
  %69 = load i32, i32* %12, align 4
  %70 = add nsw i32 %69, 1
  store i32 %70, i32* %12, align 4
  br label %57

71:                                               ; preds = %57
  store i32 0, i32* %13, align 4
  br label %72

72:                                               ; preds = %83, %71
  %73 = load i32, i32* %13, align 4
  %74 = load i32, i32* %10, align 4
  %75 = icmp slt i32 %73, %74
  br i1 %75, label %76, label %86

76:                                               ; preds = %72
  %77 = load i32, i32* %13, align 4
  %78 = sext i32 %77 to i64
  %79 = getelementptr inbounds [4 x i8], [4 x i8]* %7, i64 0, i64 %78
  %80 = load i8, i8* %79, align 1
  %81 = sext i8 %80 to i32
  %82 = call i32 (i8*, ...) @printf(i8* getelementptr inbounds ([3 x i8], [3 x i8]* @.str.1, i64 0, i64 0), i32 %81)
  br label %83

83:                                               ; preds = %76
  %84 = load i32, i32* %13, align 4
  %85 = add nsw i32 %84, 1
  store i32 %85, i32* %13, align 4
  br label %72

86:                                               ; preds = %72
  %87 = load i32, i32* %15, align 4
  %88 = add nsw i32 %87, 1
  store i32 %88, i32* %14, align 4
  br label %89

89:                                               ; preds = %100, %86
  %90 = load i32, i32* %14, align 4
  %91 = load i32, i32* %9, align 4
  %92 = icmp slt i32 %90, %91
  br i1 %92, label %93, label %103

93:                                               ; preds = %89
  %94 = load i32, i32* %14, align 4
  %95 = sext i32 %94 to i64
  %96 = getelementptr inbounds [11 x i8], [11 x i8]* %6, i64 0, i64 %95
  %97 = load i8, i8* %96, align 1
  %98 = sext i8 %97 to i32
  %99 = call i32 (i8*, ...) @printf(i8* getelementptr inbounds ([3 x i8], [3 x i8]* @.str.1, i64 0, i64 0), i32 %98)
  br label %100

100:                                              ; preds = %93
  %101 = load i32, i32* %14, align 4
  %102 = add nsw i32 %101, 1
  store i32 %102, i32* %14, align 4
  br label %89

103:                                              ; preds = %89
  %104 = call i32 (i8*, ...) @printf(i8* getelementptr inbounds ([2 x i8], [2 x i8]* @.str.2, i64 0, i64 0))
  br label %16

105:                                              ; preds = %16
  ret i32 0
}

declare dso_local i32 @__isoc99_scanf(i8*, ...) #1

; Function Attrs: nounwind readonly
declare dso_local i64 @strlen(i8*) #2

declare dso_local i32 @printf(i8*, ...) #1


!llvm.module.flags = !{!0}
!llvm.ident = !{!1}

!0 = !{i32 1, !"wchar_size", i32 4}
!1 = !{!"clang version 10.0.0-4ubuntu1 "}
